; Function Attrs: mustprogress uwtable
define internal fastcc void @_ZL25stbi__pnm_skip_whitespaceP13stbi__contextPc(ptr noundef nonnull %0, ptr noundef nonnull captures(none) %1) unnamed_addr #4 {
  %3 = getelementptr inbounds nuw i8, ptr %0, i64 48
  %4 = getelementptr inbounds nuw i8, ptr %0, i64 16
  %5 = getelementptr inbounds nuw i8, ptr %0, i64 32
  %6 = getelementptr inbounds nuw i8, ptr %0, i64 40
  %7 = getelementptr inbounds nuw i8, ptr %0, i64 192
  %8 = getelementptr inbounds nuw i8, ptr %0, i64 200
  %9 = getelementptr inbounds nuw i8, ptr %0, i64 56
  %10 = getelementptr inbounds nuw i8, ptr %0, i64 52
  %11 = getelementptr inbounds nuw i8, ptr %0, i64 208
  %12 = getelementptr inbounds nuw i8, ptr %0, i64 184
  %13 = getelementptr inbounds nuw i8, ptr %0, i64 57
  br label %.critedge2

.critedge2:                                       ; preds = %.critedge2.backedge, %2
  %14 = load ptr, ptr %4, align 8, !tbaa !22
  %.not.i = icmp eq ptr %14, null
  br i1 %.not.i, label %_ZL12stbi__at_eofP13stbi__context.exit, label %15

15:                                               ; preds = %.critedge2
  %16 = load ptr, ptr %5, align 8, !tbaa !127
  %17 = load ptr, ptr %6, align 8, !tbaa !14
  %18 = tail call noundef i32 %16(ptr noundef %17)
  %.not6.i = icmp eq i32 %18, 0
  br i1 %.not6.i, label %_ZL12stbi__at_eofP13stbi__context.exit.thread, label %19

19:                                               ; preds = %15
  %20 = load i32, ptr %3, align 8, !tbaa !18
  %21 = icmp eq i32 %20, 0
  br i1 %21, label %.critedge, label %_ZL12stbi__at_eofP13stbi__context.exit

_ZL12stbi__at_eofP13stbi__context.exit:           ; preds = %.critedge2, %19
  %22 = load ptr, ptr %7, align 8, !tbaa !21
  %23 = load ptr, ptr %8, align 8, !tbaa !24
  %.not51 = icmp ult ptr %22, %23
  br i1 %.not51, label %_ZL12stbi__at_eofP13stbi__context.exit.thread, label %.critedge

_ZL12stbi__at_eofP13stbi__context.exit.thread:    ; preds = %15, %_ZL12stbi__at_eofP13stbi__context.exit
  %24 = load i8, ptr %1, align 1, !tbaa !23
  switch i8 %24, label %.critedge [
    i8 32, label %_ZL17stbi__pnm_isspacec.exit.thread
    i8 12, label %_ZL17stbi__pnm_isspacec.exit.thread
    i8 11, label %_ZL17stbi__pnm_isspacec.exit.thread
    i8 10, label %_ZL17stbi__pnm_isspacec.exit.thread
    i8 9, label %_ZL17stbi__pnm_isspacec.exit.thread
    i8 13, label %_ZL17stbi__pnm_isspacec.exit.thread
  ]

_ZL17stbi__pnm_isspacec.exit.thread:              ; preds = %_ZL12stbi__at_eofP13stbi__context.exit.thread, %_ZL12stbi__at_eofP13stbi__context.exit.thread, %_ZL12stbi__at_eofP13stbi__context.exit.thread, %_ZL12stbi__at_eofP13stbi__context.exit.thread, %_ZL12stbi__at_eofP13stbi__context.exit.thread, %_ZL12stbi__at_eofP13stbi__context.exit.thread
  %25 = load ptr, ptr %7, align 8, !tbaa !21
  %26 = load ptr, ptr %8, align 8, !tbaa !24
  %27 = icmp ult ptr %25, %26
  br i1 %27, label %28, label %31

28:                                               ; preds = %_ZL17stbi__pnm_isspacec.exit.thread
  %29 = getelementptr inbounds nuw i8, ptr %25, i64 1
  store ptr %29, ptr %7, align 8, !tbaa !21
  %30 = load i8, ptr %25, align 1, !tbaa !23
  br label %_ZL10stbi__get8P13stbi__context.exit

31:                                               ; preds = %_ZL17stbi__pnm_isspacec.exit.thread
  %32 = load i32, ptr %3, align 8, !tbaa !18
  %.not.i19 = icmp eq i32 %32, 0
  br i1 %.not.i19, label %_ZL10stbi__get8P13stbi__context.exit, label %33

33:                                               ; preds = %31
  %34 = load ptr, ptr %4, align 8, !tbaa !22
  %35 = load ptr, ptr %6, align 8, !tbaa !14
  %36 = load i32, ptr %10, align 4, !tbaa !17
  %37 = tail call noundef i32 %34(ptr noundef %35, ptr noundef nonnull %9, i32 noundef %36)
  %38 = load ptr, ptr %7, align 8, !tbaa !21
  %39 = load ptr, ptr %11, align 8, !tbaa !20
  %40 = ptrtoint ptr %38 to i64
  %41 = ptrtoint ptr %39 to i64
  %42 = sub i64 %40, %41
  %43 = trunc i64 %42 to i32
  %44 = load i32, ptr %12, align 8, !tbaa !19
  %45 = add nsw i32 %44, %43
  store i32 %45, ptr %12, align 8, !tbaa !19
  %46 = icmp eq i32 %37, 0
  br i1 %46, label %47, label %48

47:                                               ; preds = %33
  store i32 0, ptr %3, align 8, !tbaa !18
  store i8 0, ptr %9, align 1, !tbaa !23
  br label %_ZL19stbi__refill_bufferP13stbi__context.exit.i

48:                                               ; preds = %33
  %49 = sext i32 %37 to i64
  %50 = getelementptr inbounds i8, ptr %9, i64 %49
  %.pre.i = load i8, ptr %9, align 1, !tbaa !23
  br label %_ZL19stbi__refill_bufferP13stbi__context.exit.i

_ZL19stbi__refill_bufferP13stbi__context.exit.i:  ; preds = %48, %47
  %51 = phi i8 [ 0, %47 ], [ %.pre.i, %48 ]
  %.sink.i.i = phi ptr [ %13, %47 ], [ %50, %48 ]
  store ptr %.sink.i.i, ptr %8, align 8, !tbaa !24
  store ptr %13, ptr %7, align 8, !tbaa !21
  br label %_ZL10stbi__get8P13stbi__context.exit

_ZL10stbi__get8P13stbi__context.exit:             ; preds = %28, %31, %_ZL19stbi__refill_bufferP13stbi__context.exit.i
  %.0.i20 = phi i8 [ %30, %28 ], [ %51, %_ZL19stbi__refill_bufferP13stbi__context.exit.i ], [ 0, %31 ]
  store i8 %.0.i20, ptr %1, align 1, !tbaa !23
  br label %.critedge2.backedge

.critedge2.backedge:                              ; preds = %_ZL12stbi__at_eofP13stbi__context.exit28, %_ZL12stbi__at_eofP13stbi__context.exit28.thread, %_ZL12stbi__at_eofP13stbi__context.exit28.thread, %68, %_ZL10stbi__get8P13stbi__context.exit
  br label %.critedge2, !llvm.loop !282

.critedge:                                        ; preds = %_ZL12stbi__at_eofP13stbi__context.exit.thread, %19, %_ZL12stbi__at_eofP13stbi__context.exit
  %52 = load ptr, ptr %4, align 8, !tbaa !22
  %.not.i21 = icmp eq ptr %52, null
  br i1 %.not.i21, label %_ZL12stbi__at_eofP13stbi__context.exit24, label %53

53:                                               ; preds = %.critedge
  %54 = load ptr, ptr %5, align 8, !tbaa !127
  %55 = load ptr, ptr %6, align 8, !tbaa !14
  %56 = tail call noundef i32 %54(ptr noundef %55)
  %.not6.i22 = icmp eq i32 %56, 0
  br i1 %.not6.i22, label %_ZL12stbi__at_eofP13stbi__context.exit24.thread, label %57

57:                                               ; preds = %53
  %58 = load i32, ptr %3, align 8, !tbaa !18
  %59 = icmp eq i32 %58, 0
  br i1 %59, label %_ZL12stbi__at_eofP13stbi__context.exit24.thread43, label %_ZL12stbi__at_eofP13stbi__context.exit24

_ZL12stbi__at_eofP13stbi__context.exit24:         ; preds = %.critedge, %57
  %60 = load ptr, ptr %7, align 8, !tbaa !21
  %61 = load ptr, ptr %8, align 8, !tbaa !24
  %.not52 = icmp ult ptr %60, %61
  br i1 %.not52, label %_ZL12stbi__at_eofP13stbi__context.exit24.thread, label %_ZL12stbi__at_eofP13stbi__context.exit24.thread43

_ZL12stbi__at_eofP13stbi__context.exit24.thread:  ; preds = %53, %_ZL12stbi__at_eofP13stbi__context.exit24
  %62 = load i8, ptr %1, align 1, !tbaa !23
  %.not15 = icmp eq i8 %62, 35
  br i1 %.not15, label %.preheader, label %_ZL12stbi__at_eofP13stbi__context.exit24.thread43

.preheader:                                       ; preds = %_ZL12stbi__at_eofP13stbi__context.exit24.thread, %_ZL10stbi__get8P13stbi__context.exit34
  %63 = load ptr, ptr %4, align 8, !tbaa !22
  %.not.i25 = icmp eq ptr %63, null
  br i1 %.not.i25, label %_ZL12stbi__at_eofP13stbi__context.exit28, label %64

64:                                               ; preds = %.preheader
  %65 = load ptr, ptr %5, align 8, !tbaa !127
  %66 = load ptr, ptr %6, align 8, !tbaa !14
  %67 = tail call noundef i32 %65(ptr noundef %66)
  %.not6.i26 = icmp eq i32 %67, 0
  br i1 %.not6.i26, label %_ZL12stbi__at_eofP13stbi__context.exit28.thread, label %68

68:                                               ; preds = %64
  %69 = load i32, ptr %3, align 8, !tbaa !18
  %70 = icmp eq i32 %69, 0
  br i1 %70, label %.critedge2.backedge, label %_ZL12stbi__at_eofP13stbi__context.exit28, !llvm.loop !283

_ZL12stbi__at_eofP13stbi__context.exit28:         ; preds = %.preheader, %68
  %71 = load ptr, ptr %7, align 8, !tbaa !21
  %72 = load ptr, ptr %8, align 8, !tbaa !24
  %.not53 = icmp ult ptr %71, %72
  br i1 %.not53, label %_ZL12stbi__at_eofP13stbi__context.exit28.thread, label %.critedge2.backedge, !llvm.loop !283

_ZL12stbi__at_eofP13stbi__context.exit28.thread:  ; preds = %64, %_ZL12stbi__at_eofP13stbi__context.exit28
  %73 = load i8, ptr %1, align 1, !tbaa !23
  switch i8 %73, label %74 [
    i8 10, label %.critedge2.backedge
    i8 13, label %.critedge2.backedge
  ], !llvm.loop !283

74:                                               ; preds = %_ZL12stbi__at_eofP13stbi__context.exit28.thread
  %75 = load ptr, ptr %7, align 8, !tbaa !21
  %76 = load ptr, ptr %8, align 8, !tbaa !24
  %77 = icmp ult ptr %75, %76
  br i1 %77, label %78, label %81

78:                                               ; preds = %74
  %79 = getelementptr inbounds nuw i8, ptr %75, i64 1
  store ptr %79, ptr %7, align 8, !tbaa !21
  %80 = load i8, ptr %75, align 1, !tbaa !23
  br label %_ZL10stbi__get8P13stbi__context.exit34

81:                                               ; preds = %74
  %82 = load i32, ptr %3, align 8, !tbaa !18
  %.not.i29 = icmp eq i32 %82, 0
  br i1 %.not.i29, label %_ZL10stbi__get8P13stbi__context.exit34, label %83

83:                                               ; preds = %81
  %84 = load ptr, ptr %4, align 8, !tbaa !22
  %85 = load ptr, ptr %6, align 8, !tbaa !14
  %86 = load i32, ptr %10, align 4, !tbaa !17
  %87 = tail call noundef i32 %84(ptr noundef %85, ptr noundef nonnull %9, i32 noundef %86)
  %88 = load ptr, ptr %7, align 8, !tbaa !21
  %89 = load ptr, ptr %11, align 8, !tbaa !20
  %90 = ptrtoint ptr %88 to i64
  %91 = ptrtoint ptr %89 to i64
  %92 = sub i64 %90, %91
  %93 = trunc i64 %92 to i32
  %94 = load i32, ptr %12, align 8, !tbaa !19
  %95 = add nsw i32 %94, %93
  store i32 %95, ptr %12, align 8, !tbaa !19
  %96 = icmp eq i32 %87, 0
  br i1 %96, label %97, label %98

97:                                               ; preds = %83
  store i32 0, ptr %3, align 8, !tbaa !18
  store i8 0, ptr %9, align 1, !tbaa !23
  br label %_ZL19stbi__refill_bufferP13stbi__context.exit.i31

98:                                               ; preds = %83
  %99 = sext i32 %87 to i64
  %100 = getelementptr inbounds i8, ptr %9, i64 %99
  %.pre.i30 = load i8, ptr %9, align 1, !tbaa !23
  br label %_ZL19stbi__refill_bufferP13stbi__context.exit.i31

_ZL19stbi__refill_bufferP13stbi__context.exit.i31: ; preds = %98, %97
  %101 = phi i8 [ 0, %97 ], [ %.pre.i30, %98 ]
  %.sink.i.i32 = phi ptr [ %13, %97 ], [ %100, %98 ]
  store ptr %.sink.i.i32, ptr %8, align 8, !tbaa !24
  store ptr %13, ptr %7, align 8, !tbaa !21
  br label %_ZL10stbi__get8P13stbi__context.exit34

_ZL10stbi__get8P13stbi__context.exit34:           ; preds = %78, %81, %_ZL19stbi__refill_bufferP13stbi__context.exit.i31
  %.0.i33 = phi i8 [ %80, %78 ], [ %101, %_ZL19stbi__refill_bufferP13stbi__context.exit.i31 ], [ 0, %81 ]
  store i8 %.0.i33, ptr %1, align 1, !tbaa !23
  br label %.preheader, !llvm.loop !284

_ZL12stbi__at_eofP13stbi__context.exit24.thread43: ; preds = %57, %_ZL12stbi__at_eofP13stbi__context.exit24, %_ZL12stbi__at_eofP13stbi__context.exit24.thread
  ret void
}